; Function Attrs: mustprogress nounwind uwtable
define dso_local void @_ZN4llvm31DWARFAbbreviationDeclarationSet5clearEv(ptr nocapture noundef nonnull align 8 dereferenceable(40) %0) local_unnamed_addr #1 align 2 {
  store i64 0, ptr %0, align 8
  %2 = getelementptr inbounds nuw i8, ptr %0, i64 8
  store i32 0, ptr %2, align 8
  %3 = getelementptr inbounds nuw i8, ptr %0, i64 16
  %4 = load ptr, ptr %3, align 8
  %5 = getelementptr inbounds i8, ptr %0, i64 24
  %6 = load ptr, ptr %5, align 8
  %.not.i.i = icmp eq ptr %6, %4
  br i1 %.not.i.i, label %_ZNSt6vectorIN4llvm28DWARFAbbreviationDeclarationESaIS1_EE5clearEv.exit, label %.lr.ph.i.i.i.i.i

.lr.ph.i.i.i.i.i:                                 ; preds = %1, %_ZSt8_DestroyIN4llvm28DWARFAbbreviationDeclarationEEvPT_.exit.i.i.i.i.i
  %.05.i.i.i.i.i = phi ptr [ %13, %_ZSt8_DestroyIN4llvm28DWARFAbbreviationDeclarationEEvPT_.exit.i.i.i.i.i ], [ %4, %1 ]
  %7 = getelementptr inbounds nuw i8, ptr %.05.i.i.i.i.i, i64 8
  %8 = tail call noundef i64 @_ZNK4llvm15SmallVectorBaseIjE4sizeEv(ptr noundef nonnull align 8 dereferenceable(16) %7) #18
  %9 = load ptr, ptr %7, align 8
  %10 = getelementptr inbounds i8, ptr %.05.i.i.i.i.i, i64 24
  %11 = icmp eq ptr %9, %10
  br i1 %11, label %_ZSt8_DestroyIN4llvm28DWARFAbbreviationDeclarationEEvPT_.exit.i.i.i.i.i, label %12

12:                                               ; preds = %.lr.ph.i.i.i.i.i
  tail call void @free(ptr noundef %9) #18
  br label %_ZSt8_DestroyIN4llvm28DWARFAbbreviationDeclarationEEvPT_.exit.i.i.i.i.i

_ZSt8_DestroyIN4llvm28DWARFAbbreviationDeclarationEEvPT_.exit.i.i.i.i.i: ; preds = %12, %.lr.ph.i.i.i.i.i
  %13 = getelementptr inbounds i8, ptr %.05.i.i.i.i.i, i64 160
  %.not.i.i.i.i.i = icmp eq ptr %13, %6
  br i1 %.not.i.i.i.i.i, label %_ZSt8_DestroyIPN4llvm28DWARFAbbreviationDeclarationES1_EvT_S3_RSaIT0_E.exit.i.i, label %.lr.ph.i.i.i.i.i, !llvm.loop !4

_ZSt8_DestroyIPN4llvm28DWARFAbbreviationDeclarationES1_EvT_S3_RSaIT0_E.exit.i.i: ; preds = %_ZSt8_DestroyIN4llvm28DWARFAbbreviationDeclarationEEvPT_.exit.i.i.i.i.i
  store ptr %4, ptr %5, align 8
  br label %_ZNSt6vectorIN4llvm28DWARFAbbreviationDeclarationESaIS1_EE5clearEv.exit

_ZNSt6vectorIN4llvm28DWARFAbbreviationDeclarationESaIS1_EE5clearEv.exit: ; preds = %1, %_ZSt8_DestroyIPN4llvm28DWARFAbbreviationDeclarationES1_EvT_S3_RSaIT0_E.exit.i.i
  ret void
}